target datalayout = "e-m:e-p270:32:32-p271:32:32-p272:64:64-i64:64-i128:128-f80:128-n8:16:32:64-S128"
target triple = "x86_64-pc-linux-gnu"

%struct.Aig_Obj_t_ = type { %union.anon, ptr, ptr, i64, i32, i32, %union.anon.0 }
%union.anon = type { ptr }
%union.anon.0 = type { ptr }
%struct.Aig_Man_t_ = type { ptr, ptr, ptr, ptr, ptr, ptr, ptr, %struct.Aig_Obj_t_, i32, i32, i32, i32, i32, i32, [7 x i32], i32, ptr, i32, ptr, i32, ptr, i32, i32, i32, ptr, i32, i32, i32, i32, i32, ptr, ptr, i32, ptr, ptr, i32, ptr, ptr, i32, i32, i32, ptr, ptr, ptr, ptr, ptr, ptr, ptr, ptr, ptr, ptr, ptr, ptr, ptr, ptr, i32, ptr, ptr, ptr, ptr, i32, i64, i64, i64, ptr, ptr }
%struct.Vec_Ptr_t_ = type { i32, i32, ptr }
%struct.DdManager = type { %struct.DdNode, ptr, ptr, ptr, ptr, ptr, ptr, ptr, i32, i32, double, double, double, i32, i32, i32, i32, i32, i32, ptr, ptr, %struct.DdSubtable, i32, i32, i32, i32, i32, i32, i32, double, i32, i32, i32, ptr, i64, double, i32, ptr, ptr, ptr, ptr, ptr, ptr, ptr, i32, ptr, ptr, ptr, ptr, ptr, ptr, i32, i32, i32, double, i32, i32, i32, i32, double, double, i32, i32, i32, i32, i32, i32, i32, i32, i32, ptr, ptr, i32, i32, i32, i32, i32, i32, ptr, ptr, ptr, ptr, ptr, ptr, ptr, ptr, i32, i64, i64, i64, i32, i64, i64, double, double, double, double, double, double, i32, ptr, ptr, i64 }
%struct.DdNode = type { i32, i32, ptr, %union.anon.1, i64 }
%union.anon.1 = type { %struct.DdChildren }
%struct.DdChildren = type { ptr, ptr }
%struct.DdSubtable = type { ptr, i32, i32, i32, i32, i32, i32, i32, i32, i32, i32, i32 }

; Function Attrs: inlinehint nounwind uwtable
define internal i32 @Aig_ManRegNum(ptr noundef %0) #3 {
  %2 = alloca ptr, align 8
  store ptr %0, ptr %2, align 8, !tbaa !3
  %3 = load ptr, ptr %2, align 8, !tbaa !3
  %4 = getelementptr inbounds nuw %struct.Aig_Man_t_, ptr %3, i32 0, i32 8
  %5 = load i32, ptr %4, align 8, !tbaa !40
  ret i32 %5
}

; Function Attrs: inlinehint nounwind uwtable
define internal ptr @Vec_PtrEntry(ptr noundef %0, i32 noundef %1) #3 {
  %3 = alloca ptr, align 8
  %4 = alloca i32, align 4
  store ptr %0, ptr %3, align 8, !tbaa !32
  store i32 %1, ptr %4, align 4, !tbaa !13
  %5 = load ptr, ptr %3, align 8, !tbaa !32
  %6 = getelementptr inbounds nuw %struct.Vec_Ptr_t_, ptr %5, i32 0, i32 2
  %7 = load ptr, ptr %6, align 8, !tbaa !41
  %8 = load i32, ptr %4, align 4, !tbaa !13
  %9 = sext i32 %8 to i64
  %10 = getelementptr inbounds ptr, ptr %7, i64 %9
  %11 = load ptr, ptr %10, align 8, !tbaa !43
  ret ptr %11
}

; Function Attrs: inlinehint nounwind uwtable
define internal i32 @Saig_ManPiNum(ptr noundef %0) #3 {
  %2 = alloca ptr, align 8
  store ptr %0, ptr %2, align 8, !tbaa !3
  %3 = load ptr, ptr %2, align 8, !tbaa !3
  %4 = getelementptr inbounds nuw %struct.Aig_Man_t_, ptr %3, i32 0, i32 9
  %5 = load i32, ptr %4, align 4, !tbaa !44
  ret i32 %5
}

; Function Attrs: nounwind uwtable
define ptr @Llb_BddQuantifyPis(ptr noundef %0, ptr noundef %1, ptr noundef %2) #0 {
  %4 = alloca ptr, align 8
  %5 = alloca ptr, align 8
  %6 = alloca ptr, align 8
  %7 = alloca ptr, align 8
  %8 = alloca ptr, align 8
  %9 = alloca ptr, align 8
  %10 = alloca ptr, align 8
  %11 = alloca i32, align 4
  %12 = alloca i64, align 8
  store ptr %0, ptr %4, align 8, !tbaa !3
  store ptr %1, ptr %5, align 8, !tbaa !8
  store ptr %2, ptr %6, align 8, !tbaa !33
  call void @llvm.lifetime.start.p0(i64 8, ptr %7) #5
  call void @llvm.lifetime.start.p0(i64 8, ptr %8) #5
  call void @llvm.lifetime.start.p0(i64 8, ptr %9) #5
  call void @llvm.lifetime.start.p0(i64 8, ptr %10) #5
  call void @llvm.lifetime.start.p0(i64 4, ptr %11) #5
  call void @llvm.lifetime.start.p0(i64 8, ptr %12) #5
  %13 = load ptr, ptr %5, align 8, !tbaa !8
  %14 = getelementptr inbounds nuw %struct.DdManager, ptr %13, i32 0, i32 102
  %15 = load i64, ptr %14, align 8, !tbaa !49
  store i64 %15, ptr %12, align 8, !tbaa !10
  %16 = load ptr, ptr %5, align 8, !tbaa !8
  %17 = getelementptr inbounds nuw %struct.DdManager, ptr %16, i32 0, i32 102
  store i64 0, ptr %17, align 8, !tbaa !49
  %18 = load ptr, ptr %5, align 8, !tbaa !8
  %19 = call ptr @Cudd_ReadOne(ptr noundef %18)
  store ptr %19, ptr %8, align 8, !tbaa !33
  %20 = load ptr, ptr %8, align 8, !tbaa !33
  call void @Cudd_Ref(ptr noundef %20)
  store i32 0, ptr %11, align 4, !tbaa !13
  br label %21

21:                                               ; preds = %48, %3
  %22 = load i32, ptr %11, align 4, !tbaa !13
  %23 = load ptr, ptr %4, align 8, !tbaa !3
  %24 = call i32 @Saig_ManPiNum(ptr noundef %23)
  %25 = icmp slt i32 %22, %24
  br i1 %25, label %26, label %32

26:                                               ; preds = %21
  %27 = load ptr, ptr %4, align 8, !tbaa !3
  %28 = getelementptr inbounds nuw %struct.Aig_Man_t_, ptr %27, i32 0, i32 2
  %29 = load ptr, ptr %28, align 8, !tbaa !15
  %30 = load i32, ptr %11, align 4, !tbaa !13
  %31 = call ptr @Vec_PtrEntry(ptr noundef %29, i32 noundef %30)
  store ptr %31, ptr %10, align 8, !tbaa !27
  br label %32

32:                                               ; preds = %26, %21
  %33 = phi i1 [ false, %21 ], [ true, %26 ]
  br i1 %33, label %34, label %51

34:                                               ; preds = %32
  %35 = load ptr, ptr %5, align 8, !tbaa !8
  %36 = load ptr, ptr %4, align 8, !tbaa !3
  %37 = call i32 @Aig_ManRegNum(ptr noundef %36)
  %38 = load i32, ptr %11, align 4, !tbaa !13
  %39 = add nsw i32 %37, %38
  %40 = call ptr @Cudd_bddIthVar(ptr noundef %35, i32 noundef %39)
  store ptr %40, ptr %7, align 8, !tbaa !33
  %41 = load ptr, ptr %5, align 8, !tbaa !8
  %42 = load ptr, ptr %8, align 8, !tbaa !33
  store ptr %42, ptr %9, align 8, !tbaa !33
  %43 = load ptr, ptr %7, align 8, !tbaa !33
  %44 = call ptr @Cudd_bddAnd(ptr noundef %41, ptr noundef %42, ptr noundef %43)
  store ptr %44, ptr %8, align 8, !tbaa !33
  %45 = load ptr, ptr %8, align 8, !tbaa !33
  call void @Cudd_Ref(ptr noundef %45)
  %46 = load ptr, ptr %5, align 8, !tbaa !8
  %47 = load ptr, ptr %9, align 8, !tbaa !33
  call void @Cudd_RecursiveDeref(ptr noundef %46, ptr noundef %47)
  br label %48

48:                                               ; preds = %34
  %49 = load i32, ptr %11, align 4, !tbaa !13
  %50 = add nsw i32 %49, 1
  store i32 %50, ptr %11, align 4, !tbaa !13
  br label %21, !llvm.loop !62

51:                                               ; preds = %32
  %52 = load ptr, ptr %5, align 8, !tbaa !8
  %53 = load ptr, ptr %6, align 8, !tbaa !33
  %54 = load ptr, ptr %8, align 8, !tbaa !33
  %55 = call ptr @Cudd_bddExistAbstract(ptr noundef %52, ptr noundef %53, ptr noundef %54)
  store ptr %55, ptr %6, align 8, !tbaa !33
  %56 = load ptr, ptr %6, align 8, !tbaa !33
  call void @Cudd_Ref(ptr noundef %56)
  %57 = load ptr, ptr %5, align 8, !tbaa !8
  %58 = load ptr, ptr %8, align 8, !tbaa !33
  call void @Cudd_RecursiveDeref(ptr noundef %57, ptr noundef %58)
  %59 = load ptr, ptr %6, align 8, !tbaa !33
  call void @Cudd_Deref(ptr noundef %59)
  %60 = load i64, ptr %12, align 8, !tbaa !10
  %61 = load ptr, ptr %5, align 8, !tbaa !8
  %62 = getelementptr inbounds nuw %struct.DdManager, ptr %61, i32 0, i32 102
  store i64 %60, ptr %62, align 8, !tbaa !49
  %63 = load ptr, ptr %6, align 8, !tbaa !33
  call void @llvm.lifetime.end.p0(i64 8, ptr %12) #5
  call void @llvm.lifetime.end.p0(i64 4, ptr %11) #5
  call void @llvm.lifetime.end.p0(i64 8, ptr %10) #5
  call void @llvm.lifetime.end.p0(i64 8, ptr %9) #5
  call void @llvm.lifetime.end.p0(i64 8, ptr %8) #5
  call void @llvm.lifetime.end.p0(i64 8, ptr %7) #5
  ret ptr %63
}