; Function Attrs: nounwind uwtable
define noundef ptr @Llb_BddQuantifyPis(ptr noundef readonly captures(none) %0, ptr noundef %1, ptr noundef %2) local_unnamed_addr #0 {
  %4 = getelementptr inbounds nuw i8, ptr %1, i64 752
  %5 = load i64, ptr %4, align 8, !tbaa !40
  store i64 0, ptr %4, align 8, !tbaa !40
  %6 = tail call ptr @Cudd_ReadOne(ptr noundef %1) #3
  tail call void @Cudd_Ref(ptr noundef %6) #3
  %7 = getelementptr i8, ptr %0, i64 108
  %.val30 = load i32, ptr %7, align 4, !tbaa !23
  %8 = icmp sgt i32 %.val30, 0
  br i1 %8, label %.lr.ph, label %.critedge

.lr.ph:                                           ; preds = %3
  %9 = getelementptr i8, ptr %0, i64 104
  br label %10

10:                                               ; preds = %.lr.ph, %10
  %.032 = phi i32 [ 0, %.lr.ph ], [ %14, %10 ]
  %.02731 = phi ptr [ %6, %.lr.ph ], [ %13, %10 ]
  %.val29 = load i32, ptr %9, align 8, !tbaa !22
  %11 = add nsw i32 %.val29, %.032
  %12 = tail call ptr @Cudd_bddIthVar(ptr noundef %1, i32 noundef %11) #3
  %13 = tail call ptr @Cudd_bddAnd(ptr noundef %1, ptr noundef %.02731, ptr noundef %12) #3
  tail call void @Cudd_Ref(ptr noundef %13) #3
  tail call void @Cudd_RecursiveDeref(ptr noundef %1, ptr noundef %.02731) #3
  %14 = add nuw nsw i32 %.032, 1
  %.val = load i32, ptr %7, align 4, !tbaa !23
  %15 = icmp slt i32 %14, %.val
  br i1 %15, label %10, label %.critedge, !llvm.loop !54

.critedge:                                        ; preds = %10, %3
  %.027.lcssa = phi ptr [ %6, %3 ], [ %13, %10 ]
  %16 = tail call ptr @Cudd_bddExistAbstract(ptr noundef %1, ptr noundef %2, ptr noundef %.027.lcssa) #3
  tail call void @Cudd_Ref(ptr noundef %16) #3
  tail call void @Cudd_RecursiveDeref(ptr noundef %1, ptr noundef %.027.lcssa) #3
  tail call void @Cudd_Deref(ptr noundef %16) #3
  store i64 %5, ptr %4, align 8, !tbaa !40
  ret ptr %16
}